; Function Attrs: nounwind uwtable
define internal fastcc void @printFloat(double noundef %0, ptr noundef readonly captures(none) %1, ptr noundef %2, i32 noundef range(i32 0, 2) %3) unnamed_addr #0 {
agxblen.exit.i:
  %4 = alloca %struct.agxbuf, align 8
  call void @llvm.lifetime.start.p0(i64 32, ptr nonnull %4) #20
  call void @llvm.memset.p0.i64(ptr noundef nonnull align 8 dereferenceable(32) %4, i8 0, i64 32, i1 false)
  %.not = icmp eq i32 %3, 0
  %.str.30..str.20 = select i1 %.not, ptr @.str.30, ptr @.str.20
  %5 = call i32 (ptr, ptr, ...) @agxbprint(ptr noundef nonnull %4, ptr noundef nonnull %.str.30..str.20, double noundef %0)
  %6 = getelementptr inbounds nuw i8, ptr %4, i64 31
  %.val.i.i = load i8, ptr %6, align 1, !tbaa !15
  %.not.i.i = icmp eq i8 %.val.i.i, -1
  %7 = zext i8 %.val.i.i to i64
  %8 = load ptr, ptr %4, align 8
  %9 = getelementptr inbounds nuw i8, ptr %4, i64 8
  %10 = load i64, ptr %9, align 8
  %11 = select i1 %.not.i.i, ptr %8, ptr %4
  %.0.i.i = select i1 %.not.i.i, i64 %10, i64 %7
  br label %12

12:                                               ; preds = %14, %agxblen.exit.i
  %.0.in.i = phi i64 [ %.0.i.i, %agxblen.exit.i ], [ %.0.i, %14 ]
  %13 = icmp eq i64 %.0.in.i, 0
  br i1 %13, label %agxbuf_trim_zeros.exit, label %14

14:                                               ; preds = %12
  %.0.i = add i64 %.0.in.i, -1
  %15 = getelementptr inbounds nuw i8, ptr %11, i64 %.0.i
  %16 = load i8, ptr %15, align 1, !tbaa !15
  %17 = icmp eq i8 %16, 46
  br i1 %17, label %agxblen.exit38.i, label %12

agxblen.exit38.i:                                 ; preds = %14, %29
  %18 = phi i64 [ %30, %29 ], [ %10, %14 ]
  %.val.i3951.i = phi i8 [ %.val.i39.i, %29 ], [ %.val.i.i, %14 ]
  %.val32.i = phi i8 [ %.val3250.i, %29 ], [ %.val.i.i, %14 ]
  %.028.in.i = phi i64 [ %.028.i, %29 ], [ %.0.i.i, %14 ]
  %.028.i = add i64 %.028.in.i, -1
  %19 = icmp eq i64 %.028.in.i, %.0.in.i
  br i1 %19, label %24, label %20

20:                                               ; preds = %agxblen.exit38.i
  %21 = getelementptr inbounds nuw i8, ptr %11, i64 %.028.i
  %22 = load i8, ptr %21, align 1, !tbaa !15
  %23 = icmp eq i8 %22, 48
  br i1 %23, label %24, label %agxbuf_trim_zeros.exit

24:                                               ; preds = %20, %agxblen.exit38.i
  %.not43.i = icmp eq i8 %.val32.i, -1
  br i1 %.not43.i, label %27, label %25

25:                                               ; preds = %24
  %26 = add i8 %.val32.i, -1
  store i8 %26, ptr %6, align 1, !tbaa !15
  br label %29

27:                                               ; preds = %24
  %28 = add i64 %18, -1
  store i64 %28, ptr %9, align 8, !tbaa !15
  br label %29

29:                                               ; preds = %27, %25
  %30 = phi i64 [ %28, %27 ], [ %18, %25 ]
  %.val.i39.i = phi i8 [ %.val.i3951.i, %27 ], [ %26, %25 ]
  %.val3250.i = phi i8 [ -1, %27 ], [ %26, %25 ]
  br i1 %19, label %.critedge.i, label %agxblen.exit38.i

.critedge.i:                                      ; preds = %29
  %.not.i40.i = icmp eq i8 %.val.i39.i, -1
  %31 = zext i8 %.val.i39.i to i64
  %.0.i41.i = select i1 %.not.i40.i, i64 %30, i64 %31
  %32 = icmp ult i64 %.0.i41.i, 2
  br i1 %32, label %agxbuf_trim_zeros.exit, label %33

33:                                               ; preds = %.critedge.i
  %34 = getelementptr i8, ptr %11, i64 %.0.i41.i
  %35 = getelementptr i8, ptr %34, i64 -2
  %36 = load i8, ptr %35, align 1, !tbaa !15
  %.not.i = icmp eq i8 %36, 45
  br i1 %.not.i, label %37, label %agxbuf_trim_zeros.exit

37:                                               ; preds = %33
  %38 = getelementptr i8, ptr %34, i64 -1
  %39 = load i8, ptr %38, align 1, !tbaa !15
  %.not31.i = icmp eq i8 %39, 48
  br i1 %.not31.i, label %40, label %agxbuf_trim_zeros.exit

40:                                               ; preds = %37
  store i8 48, ptr %35, align 1, !tbaa !15
  %.val.i = load i8, ptr %6, align 1, !tbaa !15
  %.not44.i = icmp eq i8 %.val.i, -1
  br i1 %.not44.i, label %agxbuf_trim_zeros.exit.thread, label %41

41:                                               ; preds = %40
  %42 = add i8 %.val.i, -1
  store i8 %42, ptr %6, align 1, !tbaa !15
  br label %agxbuf_trim_zeros.exit

agxbuf_trim_zeros.exit.thread:                    ; preds = %40
  %43 = load i64, ptr %9, align 8, !tbaa !15
  %44 = add i64 %43, -1
  store i64 %44, ptr %9, align 8, !tbaa !15
  br label %46

agxbuf_trim_zeros.exit:                           ; preds = %12, %20, %.critedge.i, %33, %37, %41
  %.val.i5 = phi i8 [ %42, %41 ], [ %.val.i39.i, %37 ], [ %.val.i39.i, %33 ], [ %.val.i39.i, %.critedge.i ], [ %.val.i3951.i, %20 ], [ %.val.i.i, %12 ]
  switch i8 %.val.i5, label %agxblen.exit.i.i [
    i8 -1, label %46
    i8 31, label %agxbclear.exit.thread.i
  ]

agxblen.exit.i.i:                                 ; preds = %agxbuf_trim_zeros.exit
  %45 = zext i8 %.val.i5 to i64
  br label %agxbsizeof.exit.i.i

46:                                               ; preds = %agxbuf_trim_zeros.exit.thread, %agxbuf_trim_zeros.exit
  %47 = load i64, ptr %9, align 8, !tbaa !15
  %48 = getelementptr inbounds nuw i8, ptr %4, i64 16
  %49 = load i64, ptr %48, align 8, !tbaa !15
  br label %agxbsizeof.exit.i.i

agxbsizeof.exit.i.i:                              ; preds = %46, %agxblen.exit.i.i
  %.val.i513 = phi i8 [ -1, %46 ], [ %.val.i5, %agxblen.exit.i.i ]
  %.0.i20.i.i = phi i64 [ %47, %46 ], [ %45, %agxblen.exit.i.i ]
  %.0.i14.i.i = phi i64 [ %49, %46 ], [ 31, %agxblen.exit.i.i ]
  %.not.i5.i = icmp ult i64 %.0.i20.i.i, %.0.i14.i.i
  br i1 %.not.i5.i, label %51, label %50

50:                                               ; preds = %agxbsizeof.exit.i.i
  call fastcc void @agxbmore(ptr noundef nonnull %4, i64 noundef 1)
  %.val.i15.pre.i.i = load i8, ptr %6, align 1, !tbaa !15
  br label %51

51:                                               ; preds = %50, %agxbsizeof.exit.i.i
  %.val.i6.pr.i = phi i8 [ %.val.i15.pre.i.i, %50 ], [ %.val.i513, %agxbsizeof.exit.i.i ]
  %.not.i16.i.i = icmp eq i8 %.val.i6.pr.i, -1
  br i1 %.not.i16.i.i, label %agxbputc.exit.i.thread, label %agxbputc.exit.i

agxbputc.exit.i.thread:                           ; preds = %51
  %52 = load i64, ptr %9, align 8, !tbaa !15
  %53 = load ptr, ptr %4, align 8, !tbaa !15
  %54 = getelementptr inbounds nuw i8, ptr %53, i64 %52
  store i8 0, ptr %54, align 1, !tbaa !15
  br label %60

agxbputc.exit.i:                                  ; preds = %51
  %55 = zext i8 %.val.i6.pr.i to i64
  %56 = getelementptr inbounds nuw [31 x i8], ptr %4, i64 0, i64 %55
  store i8 0, ptr %56, align 1, !tbaa !15
  %57 = load i8, ptr %6, align 1, !tbaa !15
  %58 = add i8 %57, 1
  store i8 %58, ptr %6, align 1, !tbaa !15
  %59 = icmp eq i8 %58, -1
  br i1 %59, label %60, label %agxbclear.exit.thread.i

agxbclear.exit.thread.i:                          ; preds = %agxbputc.exit.i, %agxbuf_trim_zeros.exit
  store i8 0, ptr %6, align 1, !tbaa !15
  br label %agxbuse.exit

60:                                               ; preds = %agxbputc.exit.i.thread, %agxbputc.exit.i
  store i64 0, ptr %9, align 8, !tbaa !15
  %61 = load ptr, ptr %4, align 8, !tbaa !15
  br label %agxbuse.exit

agxbuse.exit:                                     ; preds = %agxbclear.exit.thread.i, %60
  %62 = phi ptr [ %61, %60 ], [ %4, %agxbclear.exit.thread.i ]
  %63 = call i32 (ptr, ptr, ...) %1(ptr noundef %2, ptr noundef nonnull @.str.21, ptr noundef %62) #20
  %.val4 = load i8, ptr %6, align 1, !tbaa !15
  %64 = icmp eq i8 %.val4, -1
  br i1 %64, label %65, label %agxbfree.exit

65:                                               ; preds = %agxbuse.exit
  %.val = load ptr, ptr %4, align 8
  call void @free(ptr noundef %.val) #20
  br label %agxbfree.exit

agxbfree.exit:                                    ; preds = %agxbuse.exit, %65
  call void @llvm.lifetime.end.p0(i64 32, ptr nonnull %4) #20
  ret void
}